target datalayout = "e-m:e-p270:32:32-p271:32:32-p272:64:64-i64:64-i128:128-f80:128-n8:16:32:64-S128"
target triple = "x86_64-pc-linux-gnu"

%struct.rb_data_type_struct = type { ptr, %struct.anon, ptr, ptr, i64 }
%struct.anon = type { ptr, ptr, ptr, ptr, [1 x ptr] }

@ossl_ssl_session_type = constant %struct.rb_data_type_struct { ptr @.str, %struct.anon { ptr null, ptr @ossl_ssl_session_free, ptr null, ptr null, [1 x ptr] zeroinitializer }, ptr null, ptr null, i64 33 }, align 8
@rb_eRuntimeError = external global i64, align 8
@.str.18 = private unnamed_addr constant [32 x i8] c"SSL Session wasn't initialized.\00", align 1

; Function Attrs: inlinehint nounwind sspstrong willreturn memory(none) uwtable
define internal i64 @RB_INT2FIX(i64 noundef %0) #8 {
  %2 = alloca i64, align 8
  %3 = alloca i64, align 8
  %4 = alloca i64, align 8
  %5 = alloca i64, align 8
  %6 = alloca i64, align 8
  %7 = alloca i64, align 8
  store i64 %0, ptr %2, align 8, !tbaa !10
  call void @llvm.lifetime.start.p0(i64 8, ptr %3) #15
  %8 = load i64, ptr %2, align 8, !tbaa !10
  store i64 %8, ptr %3, align 8, !tbaa !10
  call void @llvm.lifetime.start.p0(i64 8, ptr %4) #15
  %9 = load i64, ptr %3, align 8, !tbaa !10
  %10 = shl i64 %9, 1
  %11 = add i64 %10, 1
  store i64 %11, ptr %4, align 8, !tbaa !10
  call void @llvm.lifetime.start.p0(i64 8, ptr %5) #15
  %12 = load i64, ptr %4, align 8, !tbaa !10
  store i64 %12, ptr %5, align 8, !tbaa !10
  call void @llvm.lifetime.start.p0(i64 8, ptr %6) #15
  %13 = load i64, ptr %5, align 8, !tbaa !10
  store i64 %13, ptr %6, align 8, !tbaa !10
  call void @llvm.lifetime.start.p0(i64 8, ptr %7) #15
  %14 = load i64, ptr %6, align 8, !tbaa !10
  store i64 %14, ptr %7, align 8, !tbaa !10
  %15 = load i64, ptr %7, align 8, !tbaa !10
  call void @llvm.lifetime.end.p0(i64 8, ptr %7) #15
  call void @llvm.lifetime.end.p0(i64 8, ptr %6) #15
  call void @llvm.lifetime.end.p0(i64 8, ptr %5) #15
  call void @llvm.lifetime.end.p0(i64 8, ptr %4) #15
  call void @llvm.lifetime.end.p0(i64 8, ptr %3) #15
  ret i64 %15
}

; Function Attrs: inlinehint nounwind sspstrong uwtable
define internal i64 @rb_long2num_inline(i64 noundef %0) #4 {
  %2 = alloca i64, align 8
  %3 = alloca i64, align 8
  store i64 %0, ptr %3, align 8, !tbaa !10
  %4 = load i64, ptr %3, align 8, !tbaa !10
  %5 = icmp slt i64 %4, 4611686018427387904
  br i1 %5, label %6, label %12

6:                                                ; preds = %1
  %7 = load i64, ptr %3, align 8, !tbaa !10
  %8 = icmp sge i64 %7, -4611686018427387904
  br i1 %8, label %9, label %12

9:                                                ; preds = %6
  %10 = load i64, ptr %3, align 8, !tbaa !10
  %11 = call i64 @RB_INT2FIX(i64 noundef %10) #19
  store i64 %11, ptr %2, align 8
  br label %15

12:                                               ; preds = %6, %1
  %13 = load i64, ptr %3, align 8, !tbaa !10
  %14 = call i64 @rb_int2big(i64 noundef %13)
  store i64 %14, ptr %2, align 8
  br label %15

15:                                               ; preds = %12, %9
  %16 = load i64, ptr %2, align 8
  ret i64 %16
}

; Function Attrs: nounwind sspstrong uwtable
define internal i64 @ossl_ssl_session_get_timeout(i64 noundef %0) #0 {
  %2 = alloca i64, align 8
  %3 = alloca ptr, align 8
  %4 = alloca i64, align 8
  store i64 %0, ptr %2, align 8, !tbaa !10
  call void @llvm.lifetime.start.p0(i64 8, ptr %3) #15
  call void @llvm.lifetime.start.p0(i64 8, ptr %4) #15
  br label %5

5:                                                ; preds = %1
  %6 = load i64, ptr %2, align 8, !tbaa !10
  %7 = call ptr @rb_check_typeddata(i64 noundef %6, ptr noundef @ossl_ssl_session_type)
  store ptr %7, ptr %3, align 8, !tbaa !18
  %8 = load ptr, ptr %3, align 8, !tbaa !18
  %9 = icmp ne ptr %8, null
  br i1 %9, label %12, label %10

10:                                               ; preds = %5
  %11 = load i64, ptr @rb_eRuntimeError, align 8, !tbaa !10
  call void (i64, ptr, ...) @ossl_raise(i64 noundef %11, ptr noundef @.str.18) #16
  unreachable

12:                                               ; preds = %5
  br label %13

13:                                               ; preds = %12
  br label %14

14:                                               ; preds = %13
  %15 = load ptr, ptr %3, align 8, !tbaa !18
  %16 = call i64 @SSL_SESSION_get_timeout(ptr noundef %15)
  store i64 %16, ptr %4, align 8, !tbaa !10
  %17 = load i64, ptr %4, align 8, !tbaa !10
  %18 = call i64 @rb_long2num_inline(i64 noundef %17)
  call void @llvm.lifetime.end.p0(i64 8, ptr %4) #15
  call void @llvm.lifetime.end.p0(i64 8, ptr %3) #15
  ret i64 %18
}